; Function Attrs: mustprogress uwtable
define hidden noalias noundef ptr @_Z8and_thenP6tacticS0_S0_S0_S0_S0_S0_S0_S0_(ptr noundef %t1, ptr noundef %t2, ptr noundef %t3, ptr noundef %t4, ptr noundef %t5, ptr noundef %t6, ptr noundef %t7, ptr noundef %t8, ptr noundef %t9) local_unnamed_addr #3 personality ptr @__gxx_personality_v0 {
entry:
  %call = tail call noundef ptr @_Z8and_thenP6tacticS0_S0_S0_S0_S0_S0_S0_(ptr noundef %t2, ptr noundef %t3, ptr noundef %t4, ptr noundef %t5, ptr noundef %t6, ptr noundef %t7, ptr noundef %t8, ptr noundef %t9)
  %call.i = tail call noalias noundef ptr @_ZN6memory8allocateEm(i64 noundef 32)
  %m_ref_count.i.i.i.i = getelementptr inbounds i8, ptr %call.i, i64 8
  store i32 0, ptr %m_ref_count.i.i.i.i, align 8
  %m_t1.i.i.i = getelementptr inbounds i8, ptr %call.i, i64 16
  store ptr %t1, ptr %m_t1.i.i.i, align 8
  %tobool.not.i.i.i.i.i = icmp eq ptr %t1, null
  br i1 %tobool.not.i.i.i.i.i, label %invoke.cont.i.i.i, label %if.then.i.i.i.i.i

if.then.i.i.i.i.i:                                ; preds = %entry
  %m_ref_count.i.i.i.i.i.i = getelementptr inbounds i8, ptr %t1, i64 8
  %0 = load i32, ptr %m_ref_count.i.i.i.i.i.i, align 8
  %inc.i.i.i.i.i.i = add i32 %0, 1
  store i32 %inc.i.i.i.i.i.i, ptr %m_ref_count.i.i.i.i.i.i, align 8
  br label %invoke.cont.i.i.i

invoke.cont.i.i.i:                                ; preds = %if.then.i.i.i.i.i, %entry
  %m_t2.i.i.i = getelementptr inbounds i8, ptr %call.i, i64 24
  store ptr %call, ptr %m_t2.i.i.i, align 8
  %tobool.not.i.i2.i.i.i = icmp eq ptr %call, null
  br i1 %tobool.not.i.i2.i.i.i, label %_Z8and_thenP6tacticS0_.exit, label %if.then.i.i3.i.i.i

if.then.i.i3.i.i.i:                               ; preds = %invoke.cont.i.i.i
  %m_ref_count.i.i.i4.i.i.i = getelementptr inbounds i8, ptr %call, i64 8
  %1 = load i32, ptr %m_ref_count.i.i.i4.i.i.i, align 8
  %inc.i.i.i5.i.i.i = add i32 %1, 1
  store i32 %inc.i.i.i5.i.i.i, ptr %m_ref_count.i.i.i4.i.i.i, align 8
  br label %_Z8and_thenP6tacticS0_.exit

_Z8and_thenP6tacticS0_.exit:                      ; preds = %invoke.cont.i.i.i, %if.then.i.i3.i.i.i
  store ptr getelementptr inbounds ({ [25 x ptr] }, ptr @_ZTV17and_then_tactical, i64 0, i32 0, i64 2), ptr %call.i, align 8
  ret ptr %call.i
}